; Function Attrs: inlinehint nounwind uwtable
define internal fastcc void @Py_XDECREF(ptr noundef %0) unnamed_addr #4 {
  %.not = icmp eq ptr %0, null
  br i1 %.not, label %Py_DECREF.exit, label %2

2:                                                ; preds = %1
  %3 = load i32, ptr %0, align 8, !tbaa !29
  %.not.i = icmp sgt i32 %3, -1
  br i1 %.not.i, label %4, label %Py_DECREF.exit

4:                                                ; preds = %2
  %5 = add nsw i32 %3, -1
  store i32 %5, ptr %0, align 8, !tbaa !29
  %6 = icmp eq i32 %5, 0
  br i1 %6, label %7, label %Py_DECREF.exit

7:                                                ; preds = %4
  tail call void @_Py_Dealloc(ptr noundef nonnull %0) #7
  br label %Py_DECREF.exit

Py_DECREF.exit:                                   ; preds = %7, %4, %2, %1
  ret void
}